target datalayout = "e-m:e-p270:32:32-p271:32:32-p272:64:64-i64:64-i128:128-f80:128-n8:16:32:64-S128"
target triple = "x86_64-pc-linux-gnu"

%struct.ident_t = type { i32, i32, i32, i32, ptr }
%"class.ncnn::Mat" = type { ptr, ptr, i64, i32, ptr, i32, i32, i32, i32, i32, i64 }

@1 = private unnamed_addr constant %struct.ident_t { i32 0, i32 514, i32 0, i32 22, ptr @0 }, align 8

; Function Attrs: noinline noreturn nounwind uwtable
define linkonce_odr hidden void @__clang_call_terminate(ptr noundef %0) #9 comdat {
  %2 = call ptr @__cxa_begin_catch(ptr %0) #8
  call void @_ZSt9terminatev() #24
  unreachable
}

; Function Attrs: alwaysinline mustprogress nounwind uwtable
define linkonce_odr hidden noundef ptr @_ZN4ncnn3Mat3rowEi(ptr noundef nonnull align 8 dereferenceable(72) %0, i32 noundef %1) #11 comdat align 2 {
  %3 = alloca ptr, align 8
  %4 = alloca i32, align 4
  store ptr %0, ptr %3, align 8, !tbaa !13
  store i32 %1, ptr %4, align 4, !tbaa !21
  %5 = load ptr, ptr %3, align 8
  %6 = getelementptr inbounds nuw %"class.ncnn::Mat", ptr %5, i32 0, i32 0
  %7 = load ptr, ptr %6, align 8, !tbaa !60
  %8 = getelementptr inbounds nuw %"class.ncnn::Mat", ptr %5, i32 0, i32 6
  %9 = load i32, ptr %8, align 4, !tbaa !22
  %10 = sext i32 %9 to i64
  %11 = load i32, ptr %4, align 4, !tbaa !21
  %12 = sext i32 %11 to i64
  %13 = mul i64 %10, %12
  %14 = getelementptr inbounds nuw %"class.ncnn::Mat", ptr %5, i32 0, i32 2
  %15 = load i64, ptr %14, align 8, !tbaa !25
  %16 = mul i64 %13, %15
  %17 = getelementptr inbounds nuw i8, ptr %7, i64 %16
  ret ptr %17
}

; Function Attrs: alwaysinline mustprogress nounwind uwtable
define linkonce_odr hidden noundef ptr @_ZNK4ncnn3Mat3rowEi(ptr noundef nonnull align 8 dereferenceable(72) %0, i32 noundef %1) #11 comdat align 2 {
  %3 = alloca ptr, align 8
  %4 = alloca i32, align 4
  store ptr %0, ptr %3, align 8, !tbaa !13
  store i32 %1, ptr %4, align 4, !tbaa !21
  %5 = load ptr, ptr %3, align 8
  %6 = getelementptr inbounds nuw %"class.ncnn::Mat", ptr %5, i32 0, i32 0
  %7 = load ptr, ptr %6, align 8, !tbaa !60
  %8 = getelementptr inbounds nuw %"class.ncnn::Mat", ptr %5, i32 0, i32 6
  %9 = load i32, ptr %8, align 4, !tbaa !22
  %10 = sext i32 %9 to i64
  %11 = load i32, ptr %4, align 4, !tbaa !21
  %12 = sext i32 %11 to i64
  %13 = mul i64 %10, %12
  %14 = getelementptr inbounds nuw %"class.ncnn::Mat", ptr %5, i32 0, i32 2
  %15 = load i64, ptr %14, align 8, !tbaa !25
  %16 = mul i64 %13, %15
  %17 = getelementptr inbounds nuw i8, ptr %7, i64 %16
  ret ptr %17
}

; Function Attrs: alwaysinline norecurse nounwind uwtable
define internal void @_ZNK4ncnn14Interp_x86_avx7forwardERKSt6vectorINS_3MatESaIS2_EERS4_RKNS_6OptionE.omp_outlined.10(ptr noalias noundef %0, ptr noalias noundef %1, ptr noundef nonnull align 4 dereferenceable(4) %2, ptr noundef nonnull align 8 dereferenceable(72) %3, ptr noundef nonnull align 8 dereferenceable(72) %4, ptr noundef nonnull align 8 dereferenceable(8) %5, ptr noundef nonnull align 4 dereferenceable(4) %6, ptr noundef nonnull align 8 dereferenceable(8) %7) #16 personality ptr @__gxx_personality_v0 {
  %9 = alloca ptr, align 8
  %10 = alloca ptr, align 8
  %11 = alloca ptr, align 8
  %12 = alloca ptr, align 8
  %13 = alloca ptr, align 8
  %14 = alloca ptr, align 8
  %15 = alloca ptr, align 8
  %16 = alloca ptr, align 8
  %17 = alloca ptr, align 8
  %18 = alloca ptr, align 8
  %19 = alloca i32, align 4
  %20 = alloca i32, align 4
  %21 = alloca i32, align 4
  %22 = alloca i32, align 4
  %23 = alloca i32, align 4
  %24 = alloca i32, align 4
  %25 = alloca i32, align 4
  %26 = alloca i32, align 4
  %27 = alloca i32, align 4
  %28 = alloca ptr, align 8
  %29 = alloca ptr, align 8
  %30 = alloca ptr, align 8
  %31 = alloca i32, align 4
  %32 = alloca i32, align 4
  %33 = alloca ptr, align 8
  %34 = alloca float, align 4
  %35 = alloca float, align 4
  store ptr %0, ptr %9, align 8, !tbaa !50
  store ptr %1, ptr %10, align 8, !tbaa !50
  store ptr %2, ptr %11, align 8, !tbaa !50
  store ptr %3, ptr %12, align 8, !tbaa !13
  store ptr %4, ptr %13, align 8, !tbaa !13
  store ptr %5, ptr %14, align 8, !tbaa !76
  store ptr %6, ptr %15, align 8, !tbaa !50
  store ptr %7, ptr %16, align 8, !tbaa !79
  %36 = load ptr, ptr %11, align 8, !tbaa !50
  %37 = load ptr, ptr %12, align 8, !tbaa !13
  %38 = load ptr, ptr %13, align 8, !tbaa !13
  %39 = load ptr, ptr %14, align 8, !tbaa !76
  %40 = load ptr, ptr %15, align 8, !tbaa !50
  %41 = load ptr, ptr %16, align 8, !tbaa !79
  store ptr %37, ptr %17, align 8
  store ptr %38, ptr %18, align 8
  call void @llvm.lifetime.start.p0(i64 4, ptr %19) #8
  call void @llvm.lifetime.start.p0(i64 4, ptr %20) #8
  %42 = load i32, ptr %36, align 4, !tbaa !21
  store i32 %42, ptr %20, align 4, !tbaa !21
  call void @llvm.lifetime.start.p0(i64 4, ptr %21) #8
  %43 = load i32, ptr %20, align 4, !tbaa !21
  %44 = sub nsw i32 %43, 0
  %45 = sdiv i32 %44, 1
  %46 = sub nsw i32 %45, 1
  store i32 %46, ptr %21, align 4, !tbaa !21
  call void @llvm.lifetime.start.p0(i64 4, ptr %22) #8
  store i32 0, ptr %22, align 4, !tbaa !21
  call void @llvm.lifetime.end.p0(i64 4, ptr %22) #8
  %47 = load i32, ptr %20, align 4, !tbaa !21
  %48 = icmp slt i32 0, %47
  br i1 %48, label %49, label %129

49:                                               ; preds = %8
  call void @llvm.lifetime.start.p0(i64 4, ptr %23) #8
  store i32 0, ptr %23, align 4, !tbaa !21
  call void @llvm.lifetime.start.p0(i64 4, ptr %24) #8
  %50 = load i32, ptr %21, align 4, !tbaa !21
  store i32 %50, ptr %24, align 4, !tbaa !21
  call void @llvm.lifetime.start.p0(i64 4, ptr %25) #8
  store i32 1, ptr %25, align 4, !tbaa !21
  call void @llvm.lifetime.start.p0(i64 4, ptr %26) #8
  store i32 0, ptr %26, align 4, !tbaa !21
  call void @llvm.lifetime.start.p0(i64 4, ptr %27) #8
  %51 = load ptr, ptr %9, align 8
  %52 = load i32, ptr %51, align 4, !tbaa !21
  call void @__kmpc_for_static_init_4(ptr @1, i32 %52, i32 34, ptr %26, ptr %23, ptr %24, ptr %25, i32 1, i32 1)
  %53 = load i32, ptr %24, align 4, !tbaa !21
  %54 = load i32, ptr %21, align 4, !tbaa !21
  %55 = icmp sgt i32 %53, %54
  br i1 %55, label %56, label %58

56:                                               ; preds = %49
  %57 = load i32, ptr %21, align 4, !tbaa !21
  br label %60

58:                                               ; preds = %49
  %59 = load i32, ptr %24, align 4, !tbaa !21
  br label %60

60:                                               ; preds = %58, %56
  %61 = phi i32 [ %57, %56 ], [ %59, %58 ]
  store i32 %61, ptr %24, align 4, !tbaa !21
  %62 = load i32, ptr %23, align 4, !tbaa !21
  store i32 %62, ptr %19, align 4, !tbaa !21
  br label %63

63:                                               ; preds = %122, %60
  %64 = load i32, ptr %19, align 4, !tbaa !21
  %65 = load i32, ptr %24, align 4, !tbaa !21
  %66 = icmp sle i32 %64, %65
  br i1 %66, label %68, label %67

67:                                               ; preds = %63
  br label %125

68:                                               ; preds = %63
  %69 = load i32, ptr %19, align 4, !tbaa !21
  %70 = mul nsw i32 %69, 1
  %71 = add nsw i32 0, %70
  store i32 %71, ptr %27, align 4, !tbaa !21
  call void @llvm.lifetime.start.p0(i64 8, ptr %28) #8
  %72 = load ptr, ptr %17, align 8, !tbaa !13
  %73 = load i32, ptr %27, align 4, !tbaa !21
  %74 = invoke noundef ptr @_ZNK4ncnn3Mat3rowEi(ptr noundef nonnull align 8 dereferenceable(72) %72, i32 noundef %73)
          to label %75 unwind label %130

75:                                               ; preds = %68
  store ptr %74, ptr %28, align 8, !tbaa !51
  call void @llvm.lifetime.start.p0(i64 8, ptr %29) #8
  %76 = load ptr, ptr %18, align 8, !tbaa !13
  %77 = load i32, ptr %27, align 4, !tbaa !21
  %78 = invoke noundef ptr @_ZN4ncnn3Mat3rowEi(ptr noundef nonnull align 8 dereferenceable(72) %76, i32 noundef %77)
          to label %79 unwind label %130

79:                                               ; preds = %75
  store ptr %78, ptr %29, align 8, !tbaa !51
  call void @llvm.lifetime.start.p0(i64 8, ptr %30) #8
  %80 = load ptr, ptr %39, align 8, !tbaa !51
  store ptr %80, ptr %30, align 8, !tbaa !51
  call void @llvm.lifetime.start.p0(i64 4, ptr %31) #8
  store i32 0, ptr %31, align 4, !tbaa !21
  br label %81

81:                                               ; preds = %117, %79
  %82 = load i32, ptr %31, align 4, !tbaa !21
  %83 = load i32, ptr %40, align 4, !tbaa !21
  %84 = icmp slt i32 %82, %83
  br i1 %84, label %86, label %85

85:                                               ; preds = %81
  call void @llvm.lifetime.end.p0(i64 4, ptr %31) #8
  br label %120

86:                                               ; preds = %81
  call void @llvm.lifetime.start.p0(i64 4, ptr %32) #8
  %87 = load ptr, ptr %41, align 8, !tbaa !50
  %88 = load i32, ptr %31, align 4, !tbaa !21
  %89 = sext i32 %88 to i64
  %90 = getelementptr inbounds i32, ptr %87, i64 %89
  %91 = load i32, ptr %90, align 4, !tbaa !21
  store i32 %91, ptr %32, align 4, !tbaa !21
  call void @llvm.lifetime.start.p0(i64 8, ptr %33) #8
  %92 = load ptr, ptr %28, align 8, !tbaa !51
  %93 = load i32, ptr %32, align 4, !tbaa !21
  %94 = sext i32 %93 to i64
  %95 = getelementptr inbounds float, ptr %92, i64 %94
  store ptr %95, ptr %33, align 8, !tbaa !51
  call void @llvm.lifetime.start.p0(i64 4, ptr %34) #8
  %96 = load ptr, ptr %30, align 8, !tbaa !51
  %97 = getelementptr inbounds float, ptr %96, i64 0
  %98 = load float, ptr %97, align 4, !tbaa !49
  store float %98, ptr %34, align 4, !tbaa !49
  call void @llvm.lifetime.start.p0(i64 4, ptr %35) #8
  %99 = load ptr, ptr %30, align 8, !tbaa !51
  %100 = getelementptr inbounds float, ptr %99, i64 1
  %101 = load float, ptr %100, align 4, !tbaa !49
  store float %101, ptr %35, align 4, !tbaa !49
  %102 = load ptr, ptr %33, align 8, !tbaa !51
  %103 = getelementptr inbounds float, ptr %102, i64 0
  %104 = load float, ptr %103, align 4, !tbaa !49
  %105 = load float, ptr %34, align 4, !tbaa !49
  %106 = fmul fast float %104, %105
  %107 = load ptr, ptr %33, align 8, !tbaa !51
  %108 = getelementptr inbounds float, ptr %107, i64 1
  %109 = load float, ptr %108, align 4, !tbaa !49
  %110 = load float, ptr %35, align 4, !tbaa !49
  %111 = fmul fast float %109, %110
  %112 = fadd fast float %106, %111
  %113 = load ptr, ptr %29, align 8, !tbaa !51
  %114 = getelementptr inbounds nuw float, ptr %113, i32 1
  store ptr %114, ptr %29, align 8, !tbaa !51
  store float %112, ptr %113, align 4, !tbaa !49
  %115 = load ptr, ptr %30, align 8, !tbaa !51
  %116 = getelementptr inbounds float, ptr %115, i64 2
  store ptr %116, ptr %30, align 8, !tbaa !51
  call void @llvm.lifetime.end.p0(i64 4, ptr %35) #8
  call void @llvm.lifetime.end.p0(i64 4, ptr %34) #8
  call void @llvm.lifetime.end.p0(i64 8, ptr %33) #8
  call void @llvm.lifetime.end.p0(i64 4, ptr %32) #8
  br label %117

117:                                              ; preds = %86
  %118 = load i32, ptr %31, align 4, !tbaa !21
  %119 = add nsw i32 %118, 1
  store i32 %119, ptr %31, align 4, !tbaa !21
  br label %81, !llvm.loop !89

120:                                              ; preds = %85
  call void @llvm.lifetime.end.p0(i64 8, ptr %30) #8
  call void @llvm.lifetime.end.p0(i64 8, ptr %29) #8
  call void @llvm.lifetime.end.p0(i64 8, ptr %28) #8
  br label %121

121:                                              ; preds = %120
  br label %122

122:                                              ; preds = %121
  %123 = load i32, ptr %19, align 4, !tbaa !21
  %124 = add nsw i32 %123, 1
  store i32 %124, ptr %19, align 4, !tbaa !21
  br label %63

125:                                              ; preds = %67
  br label %126

126:                                              ; preds = %125
  %127 = load ptr, ptr %9, align 8
  %128 = load i32, ptr %127, align 4, !tbaa !21
  call void @__kmpc_for_static_fini(ptr @1, i32 %128)
  call void @llvm.lifetime.end.p0(i64 4, ptr %27) #8
  call void @llvm.lifetime.end.p0(i64 4, ptr %26) #8
  call void @llvm.lifetime.end.p0(i64 4, ptr %25) #8
  call void @llvm.lifetime.end.p0(i64 4, ptr %24) #8
  call void @llvm.lifetime.end.p0(i64 4, ptr %23) #8
  br label %129

129:                                              ; preds = %126, %8
  call void @llvm.lifetime.end.p0(i64 4, ptr %21) #8
  call void @llvm.lifetime.end.p0(i64 4, ptr %20) #8
  call void @llvm.lifetime.end.p0(i64 4, ptr %19) #8
  ret void

130:                                              ; preds = %75, %68
  %131 = landingpad { ptr, i32 }
          catch ptr null
  %132 = extractvalue { ptr, i32 } %131, 0
  call void @__clang_call_terminate(ptr %132) #24
  unreachable
}